; Function Attrs: nounwind uwtable
define ptr @l_Lean_unresolveNameGlobalAvoidingLocals___rarg(ptr noundef %0, ptr noundef %1, ptr noundef %2, ptr noundef %3, ptr noundef %4, i8 noundef zeroext %5) local_unnamed_addr #1 {
  %7 = ptrtoint ptr %2 to i64
  %8 = and i64 %7, 1
  %.not = icmp eq i64 %8, 0
  br i1 %.not, label %9, label %lean_inc.exit19

9:                                                ; preds = %6
  %.val.i = load i32, ptr %2, align 4, !tbaa !4
  %10 = icmp sgt i32 %.val.i, 0
  br i1 %10, label %11, label %13, !prof !11

11:                                               ; preds = %9
  %12 = add nuw i32 %.val.i, 1
  store i32 %12, ptr %2, align 4, !tbaa !4
  br label %lean_inc.exit19

13:                                               ; preds = %9
  %.not.i = icmp eq i32 %.val.i, 0
  br i1 %.not.i, label %lean_inc.exit19, label %14

14:                                               ; preds = %13
  tail call void @lean_inc_ref_cold(ptr noundef nonnull %2) #6
  br label %lean_inc.exit19

lean_inc.exit19:                                  ; preds = %14, %13, %11, %6
  %15 = ptrtoint ptr %1 to i64
  %16 = and i64 %15, 1
  %.not26 = icmp eq i64 %16, 0
  br i1 %.not26, label %17, label %lean_inc.exit18

17:                                               ; preds = %lean_inc.exit19
  %.val.i20 = load i32, ptr %1, align 4, !tbaa !4
  %18 = icmp sgt i32 %.val.i20, 0
  br i1 %18, label %19, label %21, !prof !11

19:                                               ; preds = %17
  %20 = add nuw i32 %.val.i20, 1
  store i32 %20, ptr %1, align 4, !tbaa !4
  br label %lean_inc.exit18

21:                                               ; preds = %17
  %.not.i21 = icmp eq i32 %.val.i20, 0
  br i1 %.not.i21, label %lean_inc.exit18, label %22

22:                                               ; preds = %21
  tail call void @lean_inc_ref_cold(ptr noundef nonnull %1) #6
  br label %lean_inc.exit18

lean_inc.exit18:                                  ; preds = %22, %21, %19, %lean_inc.exit19
  %23 = ptrtoint ptr %0 to i64
  %24 = and i64 %23, 1
  %.not27 = icmp eq i64 %24, 0
  br i1 %.not27, label %25, label %lean_inc.exit

25:                                               ; preds = %lean_inc.exit18
  %.val.i23 = load i32, ptr %0, align 4, !tbaa !4
  %26 = icmp sgt i32 %.val.i23, 0
  br i1 %26, label %27, label %29, !prof !11

27:                                               ; preds = %25
  %28 = add nuw i32 %.val.i23, 1
  store i32 %28, ptr %0, align 4, !tbaa !4
  br label %lean_inc.exit

29:                                               ; preds = %25
  %.not.i24 = icmp eq i32 %.val.i23, 0
  br i1 %.not.i24, label %lean_inc.exit, label %30

30:                                               ; preds = %29
  tail call void @lean_inc_ref_cold(ptr noundef nonnull %0) #6
  br label %lean_inc.exit

lean_inc.exit:                                    ; preds = %30, %29, %27, %lean_inc.exit18
  tail call void @lean_inc_heartbeat() #6
  %31 = tail call noalias ptr @mi_malloc_small(i64 noundef 56) #6
  %32 = icmp eq ptr %31, null
  br i1 %32, label %33, label %lean_alloc_closure.exit

33:                                               ; preds = %lean_inc.exit
  tail call void @lean_internal_panic_out_of_memory() #7
  unreachable

lean_alloc_closure.exit:                          ; preds = %lean_inc.exit
  %34 = getelementptr inbounds nuw i8, ptr %31, i64 4
  store i32 1, ptr %31, align 4, !tbaa !4
  store i32 -184549320, ptr %34, align 4
  %35 = getelementptr inbounds nuw i8, ptr %31, i64 8
  store ptr @l_Lean_unresolveNameGlobalAvoidingLocals___rarg___lambda__1, ptr %35, align 8, !tbaa !9
  %36 = getelementptr inbounds nuw i8, ptr %31, i64 16
  store i16 5, ptr %36, align 8, !tbaa !14
  %37 = getelementptr inbounds nuw i8, ptr %31, i64 18
  store i16 4, ptr %37, align 2, !tbaa !14
  %38 = getelementptr inbounds nuw i8, ptr %31, i64 24
  store ptr %0, ptr %38, align 8, !tbaa !9
  %39 = getelementptr inbounds nuw i8, ptr %31, i64 32
  store ptr %1, ptr %39, align 8, !tbaa !9
  %40 = getelementptr inbounds nuw i8, ptr %31, i64 40
  store ptr %2, ptr %40, align 8, !tbaa !9
  %41 = getelementptr inbounds nuw i8, ptr %31, i64 48
  store ptr %3, ptr %41, align 8, !tbaa !9
  %42 = tail call ptr @l_Lean_unresolveNameGlobal___at_Lean_unresolveNameGlobalAvoidingLocals___spec__1___rarg(ptr noundef %0, ptr noundef %1, ptr noundef %2, ptr noundef %4, i8 noundef zeroext %5, i8 noundef zeroext 0, ptr noundef nonnull %31)
  ret ptr %42
}